(dp1
S'output'
p2
S'missing "pass" in view'
p3
sS'layer'
p4
S'ParserContainer'
p5
sS'code'
p6
S'response.write(\'<!DOCTYPE html>\\n<html lang="en">\\n<head>\\n  <!-- Theme Made By www.w3schools.com - No Copyright -->\\n  <title>National Prayer Project</title>\\n  <meta charset="utf-8">\\n  <meta name="viewport" content="width=device-width, initial-scale=1">\\n  <link rel="stylesheet" href="https://maxcdn.bootstrapcdn.com/bootstrap/3.3.7/css/bootstrap.min.css">\\n  <link href="https://fonts.googleapis.com/css?family=Montserrat" rel="stylesheet">\\n  <script src="https://ajax.googleapis.com/ajax/libs/jquery/3.1.1/jquery.min.js"></script>\\n  <script src="https://maxcdn.bootstrapcdn.com/bootstrap/3.3.7/js/bootstrap.min.js"></script>\\n  <style>\\n  body {\\n      font: 20px Montserrat, sans-serif;\\n      line-height: 1.8;\\n      color: #f5f6f7;\\n  }\\n  p {font-size: 16px;}\\n  .margin {margin-bottom: 45px;}\\n  .bg-1 {\\n      background-color: #388777; /* Green */\\n      color: #ffffff;\\n  }\\n  .bg-2 {\\n      background-color: #474e5d; /* Dark Blue */\\n      color: #ffffff;\\n  }\\n  .bg-3 {\\n      background-color: #ffffff; /* White */\\n      color: #555555;\\n  }\\n  .bg-4 {\\n      background-color: #2f2f2f; /* Black Gray */\\n      color: #fff;\\n  }\\n  .container-fluid {\\n      padding-top: 70px;\\n      padding-bottom: 70px;\\n  }\\n  .navbar {\\n      padding-top: 15px;\\n      padding-bottom: 15px;\\n      border: 0;\\n      border-radius: 0;\\n      margin-bottom: 0;\\n      font-size: 12px;\\n      letter-spacing: 5px;\\n  }\\n  .navbar-nav  li a:hover {\\n      color: #1abc9c !important;\\n  }\\n  </style>\\n</head>\\n<body>\\n\\n<!-- Navbar -->\\n<nav class="navbar navbar-default">\\n  <div class="container">\\n    <div class="navbar-header">\\n      <button type="button" class="navbar-toggle" data-toggle="collapse" data-target="#myNavbar">\\n        <span class="icon-bar"></span>\\n        <span class="icon-bar"></span>\\n        <span class="icon-bar"></span>\\n      </button>\\n      <a class="navbar-brand" href="#"></a>\\n    </div>\\n    <div class="collapse navbar-collapse" id="myNavbar">\\n      <ul class="nav navbar-nav navbar-right">\\n        <li><a href="#who">WHO</a></li>\\n        <li><a href="#when">WHEN</a></li>\\n        <li><a href="#what">WHAT</a></li>\\n        <li><a href="#where">WHERE</a></li>\\n        <li><a href="#why">WHY</a></li>\\n        <li><a href="#how">HOW</a></li>\\n        <li><a href="#how">CONTRIBUTE</a></li>\\n      </ul>\\n    </div>\\n  </div>\\n</nav>\\n\\n<!-- First Container -->\\n<div class="container-fluid bg-1 text-center">\\n    <h1 class = "Margin">\\n        National Prayer Project, U.S.A.\\n    </h1>\\n    <h2>\\n       Because there is more that binds us than divides us.\\n    </h2>\\n\\n  \', escape=False)\nresponse.write((CENTER(IMG(_src=URL(\'static\',\'tr.jpg\'), _class="img-responsive img-circle margin", _style="max-width:40%; max-height:40%", _alt="tree"))))\nresponse.write(\'\\n\\n  <h1 id="who" class="margin">Who?</h1>\\n  <h3>You! and as many people we can get to pray at the same time on the same day.</h3>\\n    <p><h3>\\n    We invite those of faith any faith and no faith to participate.</p>\\n    <p></h3><br>\\n<p><h1>\\n    Next day is March 25, 2017\\n    \', escape=False)\nda = (date(2017, 3, 18), date(2017, 5, 12), date(2017, 5, 22))\nresponse.write(\'\\n\', escape=False)\nfor item in da:\n    response.write(\'\\n    \', escape=False)\n    if item >= date.today():\n        response.write(\'\\n      \', escape=False)\n        response.write(items)\n        response.write(\'\\n      \', escape=False)\n        break\n    response.write(\'\\n    </h1>\\n\\n    </p>\\n    \\n</div>\\n\\n<!-- Second Container -->\\n\\n    <div class="container-fluid bg-2 text-center">\\n  <h1 id="when" class="margin">When?</h1>\\n\\n  <p><h3>The prayer time will be at 1pm pacific standard time(see below for your time zone).  The days will be picked at random and will occur about once every 8 days.  The day will be displayed above at least 24 hours ahead of time. Again, we all pray for a couple minutes beginning at 1pm (PSD) that day.\\n\\n </p></h3><br>\\n\\n<!-- image Container -->\\n\\n<div class="row">\\n    <div class="col-sm-2"></div>\\n    <div class="col-sm-2">\\n      <p><strong>Samoa</strong></p>\\n        <p><strong>10am</strong></p><br>\\n       \', escape=False)\n    response.write((CENTER(IMG(_src=URL(\'static\',\'samoa.jpeg\'), _class="img-responsive img-circle margin", _alt="img"))))\n    response.write(\'\\n    </div>\\n    <div class="col-sm-2">\\n      <p><strong>Hawaii</strong></p>\\n        <p><strong>11am</strong></p><br>\\n      \', escape=False)\n    response.write((CENTER(IMG(_src=URL(\'static\',\'hawaii2.jpg\'), _class="img-responsive img-circle margin", _alt="img"))))\n    response.write(\'\\n    </div>\\n    <div class="col-sm-2">\\n      <p><strong>Alaska</strong></p>\\n        <p><strong>Noon</strong></p><br>\\n      \', escape=False)\n    response.write((CENTER(IMG(_src=URL(\'static\',\'alaska.jpg\'), _class="img-responsive img-circle margin", _alt="img"))))\n    response.write(\'\\n    </div>\\n    <div class="col-sm-2">\\n      <p><strong>Pacific</strong></p>\\n        <p><strong>1pm</strong></p><br>\\n      \', escape=False)\n    response.write((CENTER(IMG(_src=URL(\'static\',\'california.jpg\'), _class="img-responsive img-circle margin", _alt="img"))))\n    response.write(\'\\n    </div>\\n</div>\\n        <div class="row">\\n              <div class="col-sm-2"></div>\\n              <div class="col-sm-1"></div>\\n    <div class="col-sm-2">\\n      <p><strong>Mountain</strong></p>\\n        <p><strong>2pm</strong></p><br>\\n      \', escape=False)\n    response.write((CENTER(IMG(_src=URL(\'static\',\'mountain.jpg\'), _class="img-responsive img-circle margin", _alt="img"))))\n    response.write(\'\\n    </div>\\n    <div class="col-sm-2">\\n      <p><strong>Central</strong></p>\\n        <p><strong>3pm</strong></p><br>\\n      \', escape=False)\n    response.write((CENTER(IMG(_src=URL(\'static\',\'central.jpeg\'), _class="img-responsive img-circle margin", _alt="img"))))\n    response.write(\'\\n    </div>\\n    <div class="col-sm-2">\\n      <p><strong>Eastern</strong></p>\\n        <p><strong>4pm</strong></p><br>\\n      \', escape=False)\n    response.write((CENTER(IMG(_src=URL(\'static\',\'eastern.jpg\'), _class="img-responsive img-circle margin", _alt="img"))))\n    response.write(\'\\n    </div>\\n        </div>\\n</div>\\n</div>\\n<div class="container-fluid bg-1 text-center">\\n  <h1 id="what" class="margin">What?</h1>\\n  <p><h3>\\n    \\n    It is quite simple; we are praying; praying for peace and civility in ourselves, media, protesters and elected officials.  What is happening across in our country is very American and political discourse should be welcomed.  Let\\xe2\\x80\\x99s take a moment to stop calling those on the other side extremists and recognize we are all radicals. America is a radical idea.  What is going on is tradition and our country needs it.</p></h3>\\n    <p><h3><br>\\n\\n\\nLet\\xe2\\x80\\x99s unclench our fists, relax our jaws for a moment and consider all that binds us.  Anything beyond that is up to you; your prayer is your prayer.\\n </p></h3>\\n\\n</div>\\n    <!-- 3 Container -->\\n    <!-- 4 Container -->\\n    <div class="container-fluid bg-2 text-center">\\n  <h1 id="where" class="margin">Where?</h1>\\n  <p><h3> Wherever you are is where it is happening.  We are just focused on time.    </p></h3>\\n\\n</div>\\n    <!-- 5 Container -->\\n    <div class="container-fluid bg-1 text-center">\\n  <h1 id="why"  class="margin">Why?</h1>\\n  <p><h3>It is getting ugly out there.  There is too much yelling, too much violence, too much division, too much self-assuredness and not enough listening; let\\xe2\\x80\\x99s not lose our humanity.  </p></h3>\\n\\n</div>\\n    <!-- 6 Container -->\\n    <div class="container-fluid bg-2 text-center">\\n  <h1 id="how" class="margin">How?</h1>\\n        <p><h3>The following is from The Bible and seems like good advice.</h3></p><br>\\n        <p><h3>5 \\xe2\\x80\\x9cAnd when you pray, do not be like the hypocrites, for they love to pray standing in the synagogues and on the street corners to be seen by others. Truly I tell you, they have received their reward in full. 6 But when you pray, go into your room, close the door and pray to your Father, who is unseen. Then your Father, who sees what is done in secret, will reward you. 7 And when you pray, do not keep on babbling like pagans, for they think they will be heard because of their many words. 8 Do not be like them, for your Father knows what you need before you ask him." Matthew 6:4-8\\n       </h3> </p><br>\\n        <p><h3>\\n            Pray how you want to pray.  You can\\\'t get it wrong.</h3>\\n        </p>\\n\\n</div>\\n <!-- 5 Container -->\\n    <div class="container-fluid bg-1 text-center">\\n  <h1 id="contribute" class="margin">Contribute</h1>\\n  <p><h3>Do consider making a small contribution.  We ask for a one time donation of $4.</h3> </p>\\n        <p><h3>\\n            This will help keep the lights on and the website running.\\n        </p></h3>\\n <p><h3>If this is not an option that is fine.  We could use your help in spreading the word.</h3> </p><br>\\n\\n\\n    <form action="#" method="POST">\\n  <script\\n    src="https://checkout.stripe.com/checkout.js" class="stripe-button"\\n    data-key="pk_test_V5b84CCXyZ0XSM7E4Cl1mI48"\\n    data-amount="400"\\n    data-name="NationalPrayerProject.com"\\n    data-description=""\\n    data-image=""\\n    data-locale="auto"\\n    data-zip-code="true">\\n  </script>\\n</form>\\n\\n</div>\\n <footer class="footer">\\n      <div class="container-fluid bg-2 text-center">\\n        <div class="copyright pull-left">\', escape=False)\n    response.write(T(\'Copyright\'))\n    response.write(\' &#169; \', escape=False)\n    response.write(request.now.year)\n    response.write(\'</div>\\n          <div id="poweredBy" class="pull-right">\\n            \', escape=False)\n    response.write(T(\'Powered by\'))\n    response.write(\'\\n            <a href="http://www.web2py.com/">web2py</a>\\n          </div>\\n      </div>\\n    </footer>\\n</body>\\n</html>\\n\', escape=False)'
p7
sS'snapshot'
p8
(dp9
sS'traceback'
p10
S'None\n'
p11
s.